target datalayout = "e-m:e-p270:32:32-p271:32:32-p272:64:64-i64:64-i128:128-f80:128-n8:16:32:64-S128"
target triple = "x86_64-pc-linux-gnu"

; Function Attrs: nounwind uwtable
define dso_local ptr @lookup_commit(ptr noundef %0, ptr noundef %1) #0 {
  %3 = alloca ptr, align 8
  %4 = alloca ptr, align 8
  %5 = alloca ptr, align 8
  %6 = alloca ptr, align 8
  %7 = alloca i32, align 4
  store ptr %0, ptr %4, align 8, !tbaa !4
  store ptr %1, ptr %5, align 8, !tbaa !9
  call void @llvm.lifetime.start.p0(i64 8, ptr %6) #11
  %8 = load ptr, ptr %4, align 8, !tbaa !4
  %9 = load ptr, ptr %5, align 8, !tbaa !9
  %10 = call ptr @lookup_object(ptr noundef %8, ptr noundef %9)
  store ptr %10, ptr %6, align 8, !tbaa !13
  %11 = load ptr, ptr %6, align 8, !tbaa !13
  %12 = icmp ne ptr %11, null
  br i1 %12, label %19, label %13

13:                                               ; preds = %2
  %14 = load ptr, ptr %4, align 8, !tbaa !4
  %15 = load ptr, ptr %5, align 8, !tbaa !9
  %16 = load ptr, ptr %4, align 8, !tbaa !4
  %17 = call ptr @alloc_commit_node(ptr noundef %16)
  %18 = call ptr @create_object(ptr noundef %14, ptr noundef %15, ptr noundef %17)
  store ptr %18, ptr %3, align 8
  store i32 1, ptr %7, align 4
  br label %22

19:                                               ; preds = %2
  %20 = load ptr, ptr %6, align 8, !tbaa !13
  %21 = call ptr @object_as_type(ptr noundef %20, i32 noundef 1, i32 noundef 0)
  store ptr %21, ptr %3, align 8
  store i32 1, ptr %7, align 4
  br label %22

22:                                               ; preds = %19, %13
  call void @llvm.lifetime.end.p0(i64 8, ptr %6) #11
  %23 = load ptr, ptr %3, align 8
  ret ptr %23
}