; Function Attrs: nounwind uwtable
define dso_local ptr @lookup_commit(ptr noundef %0, ptr noundef %1) local_unnamed_addr #0 {
  %3 = tail call ptr @lookup_object(ptr noundef %0, ptr noundef %1) #24
  %.not = icmp eq ptr %3, null
  br i1 %.not, label %4, label %7

4:                                                ; preds = %2
  %5 = tail call ptr @alloc_commit_node(ptr noundef %0) #24
  %6 = tail call ptr @create_object(ptr noundef %0, ptr noundef %1, ptr noundef %5) #24
  br label %9

7:                                                ; preds = %2
  %8 = tail call ptr @object_as_type(ptr noundef nonnull %3, i32 noundef 1, i32 noundef 0) #24
  br label %9

9:                                                ; preds = %7, %4
  %.0 = phi ptr [ %8, %7 ], [ %6, %4 ]
  ret ptr %.0
}